(dp1
S'11'
p2
(dp3
S'nr'
p4
I11
sS'lastValid'
p5
(dp6
sS'values'
p7
(dp8
sS'collectors'
p9
(lp10
sS'times'
p11
(lp12
ssS'10'
p13
(dp14
g4
I10
sg5
(dp15
sg7
(dp16
sg9
(lp17
sg11
(lp18
ssS'1'
(dp19
g4
I1
sg5
(dp20
S'Cumulative'
p21
I01
sS'Global'
p22
I01
ssg7
(dp23
g22
(lp24
F-0.19431480000000001
aF4.612834e-05
aF6.4201730000000001e-05
aF4.0995390000000003e-05
aF2.4501140000000001e-05
aF1.4545199999999999e-05
aF8.7122159999999998e-06
aF5.2959070000000004e-06
aF3.2924559999999999e-06
aF2.1197720000000001e-06
aF1.423905e-06
aF1.0048469999999999e-06
aF7.4203029999999996e-07
aF5.7059610000000003e-07
aF4.5021919999999997e-07
aF3.6169250000000002e-07
aF2.9977370000000002e-07
aF2.484092e-07
aF1.9920499999999999e-07
aF1.4942649999999999e-07
asg21
(lp25
F-0.19431480000000001
aF-1.1745049999999999
aF-1.1742079999999999
aF-1.1738470000000001
aF-1.173621
aF-1.173486
aF-1.173405
aF-1.173357
aF-1.1733279999999999
aF-1.1733089999999999
aF-1.173298
aF-1.1732899999999999
aF-1.173284
aF-1.1732800000000001
aF-1.1732769999999999
aF-1.1732739999999999
aF-1.1732720000000001
aF-1.17327
aF-1.1732689999999999
aF-1.173268
assg9
(lp26
sg11
(lp27
F0.00058823499999999999
aF0.00059412500000000004
aF0.00060011600000000004
aF0.00060627999999999995
aF0.00061257200000000003
aF0.00061894000000000001
aF0.000625357
aF0.00063179999999999996
aF0.00063825600000000002
aF0.00064471699999999995
aF0.00065118299999999995
aF0.00065764800000000004
aF0.00066411300000000003
aF0.00067057399999999995
aF0.00067703000000000001
aF0.00068348699999999998
aF0.00068993899999999998
aF0.00069638600000000001
aF0.00070282899999999998
aF0.00070926699999999997
assS'3'
(dp28
g4
I3
sg5
(dp29
S'alpha.water'
p30
I01
sS'epsilon'
p31
I01
sS'k'
I01
sS'p_rgh'
p32
I01
ssg7
(dp33
g30
(lp34
F5
aF3
aF3
aF3
aF3
aF3
aF3
aF3
aF3
aF3
aF3
aF3
aF3
aF3
aF3
aF3
aF3
aF3
aF3
aF3
asg31
(lp35
F32
aF19
aF19
aF19
aF19
aF19
aF19
aF19
aF19
aF19
aF19
aF19
aF20
aF20
aF20
aF20
aF20
aF20
aF20
aF11
asS'k'
(lp36
F33
aF18
aF18
aF18
aF18
aF18
aF17
aF17
aF18
aF18
aF18
aF18
aF18
aF18
aF17
aF17
aF17
aF17
aF17
aF10
asg32
(lp37
F7749
aF5936
aF6705
aF6201
aF5808
aF6226
aF5766
aF6711
aF5506
aF5510
aF5449
aF5679
aF5408
aF5573
aF5898
aF5194
aF5297
aF5351
aF4821
aF3322
assg9
(lp38
sg11
(lp39
F0.00058823499999999999
aF0.00059412500000000004
aF0.00060011600000000004
aF0.00060627999999999995
aF0.00061257200000000003
aF0.00061894000000000001
aF0.000625357
aF0.00063179999999999996
aF0.00063825600000000002
aF0.00064471699999999995
aF0.00065118299999999995
aF0.00065764800000000004
aF0.00066411300000000003
aF0.00067057399999999995
aF0.00067703000000000001
aF0.00068348699999999998
aF0.00068993899999999998
aF0.00069638600000000001
aF0.00070282899999999998
aF0.00070926699999999997
assS'2'
(dp40
g4
I2
sg5
(dp41
S'p_rgh'
p42
I01
sS'alpha.water_iterations'
p43
I01
sS'p_rgh_iterations'
p44
I01
sS'alpha.water'
p45
I01
sS'epsilon'
p46
I01
sS'epsilon_final'
p47
I01
sS'epsilon_iterations'
p48
I01
sS'p_rgh_final'
p49
I01
sS'k_final'
p50
I01
sS'k_iterations'
p51
I01
sS'alpha.water_final'
p52
I01
sS'k'
I01
ssg7
(dp53
g42
(lp54
F1
aF0.0073786529999999998
aF0.0012607110000000001
aF0.00053635849999999997
aF0.00053469080000000005
aF0.00061319439999999998
aF0.00073748270000000005
aF0.00092330090000000004
aF0.001174144
aF0.0014877340000000001
aF0.0018620349999999999
aF0.0022436650000000002
aF0.002611108
aF0.0029044600000000002
aF0.0031490369999999999
aF0.003383404
aF0.0034788319999999998
aF0.0035525930000000002
aF0.0036624159999999999
aF0.0038555099999999999
asg43
(lp55
F5
aF3
aF3
aF3
aF3
aF3
aF3
aF3
aF3
aF3
aF3
aF3
aF3
aF3
aF3
aF3
aF3
aF3
aF3
aF3
asg44
(lp56
F7749
aF5936
aF6705
aF6201
aF5808
aF6226
aF5766
aF6711
aF5506
aF5510
aF5449
aF5679
aF5408
aF5573
aF5898
aF5194
aF5297
aF5351
aF4821
aF3322
asg45
(lp57
F6.5238189999999994e-17
aF8.2489600000000003e-07
aF8.1945939999999995e-07
aF8.1508120000000003e-07
aF8.1382060000000002e-07
aF8.1252690000000001e-07
aF8.1162900000000005e-07
aF8.1051939999999998e-07
aF8.0930269999999997e-07
aF8.0794069999999997e-07
aF8.0719140000000001e-07
aF8.0628159999999997e-07
aF8.0563510000000002e-07
aF8.0461040000000002e-07
aF8.0371109999999996e-07
aF8.0345809999999996e-07
aF8.0271359999999995e-07
aF8.0201760000000001e-07
aF8.0135939999999996e-07
aF8.0073190000000001e-07
asg46
(lp58
F0.2709143
aF0.035923330000000003
aF0.03591424
aF0.03612435
aF0.037028150000000003
aF0.037232849999999998
aF0.036741009999999998
aF0.035735999999999997
aF0.034407340000000002
aF0.032898289999999997
aF0.03133495
aF0.029747030000000001
aF0.02820721
aF0.026718100000000002
aF0.025321429999999999
aF0.0239896
aF0.02272035
aF0.02153774
aF0.02043878
aF0.01941963
asg47
(lp59
F2.8737570000000001e-09
aF1.5136890000000001e-09
aF1.8056099999999999e-09
aF1.9815569999999998e-09
aF1.9496550000000001e-09
aF1.882671e-09
aF1.8125000000000001e-09
aF1.7420380000000001e-09
aF1.6755669999999999e-09
aF1.613189e-09
aF1.559712e-09
aF1.5119440000000001e-09
aF1.4699500000000001e-09
aF1.4315669999999999e-09
aF1.3983029999999999e-09
aF1.37205e-09
aF1.3479590000000001e-09
aF1.3281580000000001e-09
aF1.3121449999999999e-09
aF1.196862e-09
asg48
(lp60
F32
aF19
aF19
aF19
aF19
aF19
aF19
aF19
aF19
aF19
aF19
aF19
aF20
aF20
aF20
aF20
aF20
aF20
aF20
aF11
asg49
(lp61
F4.9242859999999999e-11
aF9.8744280000000002e-11
aF9.1166680000000003e-11
aF8.3799259999999997e-11
aF9.4874129999999997e-11
aF9.9984539999999997e-11
aF8.9219150000000004e-11
aF9.4028189999999999e-11
aF6.9600350000000006e-11
aF8.0456589999999995e-11
aF8.9328849999999999e-11
aF9.9868289999999995e-11
aF7.8770729999999998e-11
aF9.9626959999999999e-11
aF9.8161770000000001e-11
aF8.8601290000000004e-11
aF9.6555379999999996e-11
aF9.6229879999999995e-11
aF9.9835069999999999e-11
aF3.9574820000000001e-09
asg50
(lp62
F3.531649e-09
aF5.9670980000000004e-10
aF7.014977e-10
aF7.7560159999999998e-10
aF7.1817469999999996e-10
aF6.591758e-10
aF9.2406609999999993e-09
aF7.9556289999999994e-09
aF6.9080569999999997e-09
aF6.0297850000000002e-09
aF5.3015319999999998e-09
aF4.6977449999999999e-09
aF4.158073e-09
aF3.683696e-09
aF9.7423559999999998e-09
aF9.3690140000000005e-09
aF9.0212999999999999e-09
aF8.7131549999999998e-09
aF8.4373429999999999e-09
aF5.5226140000000003e-09
asg51
(lp63
F33
aF18
aF18
aF18
aF18
aF18
aF17
aF17
aF18
aF18
aF18
aF18
aF18
aF18
aF17
aF17
aF17
aF17
aF17
aF10
asg52
(lp64
F4.8764159999999999e-11
aF6.3463469999999998e-12
aF6.8152939999999996e-12
aF7.3732420000000001e-12
aF7.9086970000000007e-12
aF8.3977579999999996e-12
aF8.8712590000000005e-12
aF9.3370400000000008e-12
aF9.807286e-12
aF1.028809e-11
aF1.0798429999999999e-11
aF1.1327830000000001e-11
aF1.1887210000000001e-11
aF1.246536e-11
aF1.307431e-11
aF1.372858e-11
aF1.440389e-11
aF1.5114049999999999e-11
aF1.5860610000000001e-11
aF1.6645240000000001e-11
asS'k'
(lp65
F1
aF0.02345684
aF0.024660459999999999
aF0.022641049999999999
aF0.02181168
aF0.021022160000000002
aF0.020162070000000001
aF0.019253860000000001
aF0.018330450000000002
aF0.017414220000000001
aF0.016533920000000001
aF0.015676800000000001
aF0.014869800000000001
aF0.014105060000000001
aF0.01340355
aF0.012735049999999999
aF0.01209962
aF0.01150927
aF0.010961510000000001
aF0.01045369
assg9
(lp66
sg11
(lp67
F0.00058823499999999999
aF0.00059412500000000004
aF0.00060011600000000004
aF0.00060627999999999995
aF0.00061257200000000003
aF0.00061894000000000001
aF0.000625357
aF0.00063179999999999996
aF0.00063825600000000002
aF0.00064471699999999995
aF0.00065118299999999995
aF0.00065764800000000004
aF0.00066411300000000003
aF0.00067057399999999995
aF0.00067703000000000001
aF0.00068348699999999998
aF0.00068993899999999998
aF0.00069638600000000001
aF0.00070282899999999998
aF0.00070926699999999997
assS'5'
(dp68
g4
I5
sg5
(dp69
S'deltaT'
p70
I00
ssg7
(dp71
g70
(lp72
F5.8897149999999999e-06
aF5.9910029999999998e-06
aF6.1638579999999997e-06
aF6.2918420000000004e-06
aF6.3686759999999999e-06
aF6.4165929999999997e-06
aF6.4430540000000002e-06
aF6.4563749999999997e-06
aF6.4608309999999998e-06
aF6.4652959999999996e-06
aF6.4652959999999996e-06
aF6.4652959999999996e-06
aF6.460821e-06
aF6.4563499999999996e-06
aF6.4563499999999996e-06
aF6.4518790000000001e-06
aF6.4474110000000004e-06
aF6.4429459999999998e-06
aF6.4384839999999998e-06
aFnan
assg9
(lp73
sg11
(lp74
F0.00058823499999999999
aF0.00059412500000000004
aF0.00060011600000000004
aF0.00060627999999999995
aF0.00061257200000000003
aF0.00061894000000000001
aF0.000625357
aF0.00063179999999999996
aF0.00063825600000000002
aF0.00064471699999999995
aF0.00065118299999999995
aF0.00065764800000000004
aF0.00066411300000000003
aF0.00067057399999999995
aF0.00067703000000000001
aF0.00068348699999999998
aF0.00068993899999999998
aF0.00069638600000000001
aF0.00070282899999999998
aF0.00070926699999999997
assS'4'
(dp75
g4
I4
sg5
(dp76
S'cpu'
p77
I00
sS'clock'
p78
I00
ssg7
(dp79
g77
(lp80
F4.5300000000000002
aF3.2699999999999996
aF4.1299999999999999
aF3.4399999999999995
aF4.8600000000000012
aF3.5500000000000007
aF4.0399999999999991
aF4.2800000000000011
aF3.6400000000000006
aF3.9099999999999966
aF3.8599999999999994
aF3.75
aF4.4200000000000017
aF3.8699999999999974
aF4.3900000000000006
aF3.9000000000000057
aF3.2099999999999937
aF3.980000000000004
aF3.8299999999999983
aFnan
asg78
(lp81
F5
aF3
aF4
aF4
aF4
aF4
aF4
aF4
aF4
aF4
aF4
aF4
aF4
aF4
aF4
aF4
aF4
aF4
aF3
aFnan
assg9
(lp82
sg11
(lp83
F0.00058823499999999999
aF0.00059412500000000004
aF0.00060011600000000004
aF0.00060627999999999995
aF0.00061257200000000003
aF0.00061894000000000001
aF0.000625357
aF0.00063179999999999996
aF0.00063825600000000002
aF0.00064471699999999995
aF0.00065118299999999995
aF0.00065764800000000004
aF0.00066411300000000003
aF0.00067057399999999995
aF0.00067703000000000001
aF0.00068348699999999998
aF0.00068993899999999998
aF0.00069638600000000001
aF0.00070282899999999998
aF0.00070926699999999997
assS'7'
(dp84
g4
I7
sg5
(dp85
S'max'
p86
I00
sS'mean'
p87
I00
ssg7
(dp88
g86
(lp89
F99.866600000000005
aF0.98318159999999999
aF0.97175529999999999
aF0.97993220000000003
aF0.98802579999999995
aF0.99284479999999997
aF0.99617820000000001
aF0.99804499999999996
aF0.99901090000000003
aF0.99928810000000001
aF0.99997689999999995
aF1.0002200000000001
aF1.0006090000000001
aF1.0003979999999999
aF1.000275
aF1.0009079999999999
aF1.0008919999999999
aF1.0009079999999999
aF1.000947
aFnan
asg87
(lp90
F0.095226930000000001
aF0.00092889049999999999
aF0.00091670719999999996
aF0.00092729789999999998
aF0.00093710539999999995
aF0.00094289060000000004
aF0.00094655529999999996
aF0.00094836219999999997
aF0.00094902270000000002
aF0.00094885939999999995
aF0.00094899429999999998
aF0.00094866069999999995
aF0.00094844820000000002
aF0.00094765989999999998
aF0.00094692769999999999
aF0.00094688879999999995
aF0.00094621970000000001
aF0.00094557050000000002
aF0.00094493889999999997
aFnan
assg9
(lp91
sg11
(lp92
F0.00058823499999999999
aF0.00059412500000000004
aF0.00060011600000000004
aF0.00060627999999999995
aF0.00061257200000000003
aF0.00061894000000000001
aF0.000625357
aF0.00063179999999999996
aF0.00063825600000000002
aF0.00064471699999999995
aF0.00065118299999999995
aF0.00065764800000000004
aF0.00066411300000000003
aF0.00067057399999999995
aF0.00067703000000000001
aF0.00068348699999999998
aF0.00068993899999999998
aF0.00069638600000000001
aF0.00070282899999999998
aF0.00070926699999999997
assS'6'
(dp93
g4
I6
sg5
(dp94
sg7
(dp95
sg9
(lp96
sg11
(lp97
ssS'9'
(dp98
g4
I9
sg5
(dp99
sg7
(dp100
sg9
(lp101
sg11
(lp102
ssS'8'
(dp103
g4
I8
sg5
(dp104
sg7
(dp105
sg9
(lp106
I10
asg11
(lp107
ss.(dp108
S'1'
(dp109
g4
I1
sS'data'
p110
I2
sS'spec'
p111
(dp112
S'logscale'
p113
I01
sS'skipheader'
p114
I0
sS'titles'
p115
(lp116
sS'name'
p117
S'Custom01_linear'
p118
sS'theTitle'
p119
S'Residuals'
p120
sS'with'
p121
S'lines'
p122
sS'expr'
p123
S''
sS'forbidden'
p124
(lp125
S'final'
p126
aS'iterations'
p127
asS'enabled'
p128
I01
sS'gnuplotCommands'
p129
(lp130
sS'raisit'
p131
I00
sS'specialwith'
p132
(dp133
sS'alternateLogscale'
p134
I00
sS'alternateAxis'
p135
(lp136
sS'enhanced'
p137
I00
sS'persist'
p138
I00
sS'xlabel'
p139
S'Time [s]'
p140
sS'type'
p141
S'regular'
p142
sS'accumulation'
p143
S'first'
p144
sS'writeFiles'
p145
I00
ssS'id'
p146
S'linear'
p147
ssS'3'
(dp148
g4
I3
sg110
I6
sg111
(dp149
g113
I00
sS'skipheader'
p150
I0
sg115
(lp151
sg117
S'Custom03_bounding'
p152
sg119
S'Bounded variables'
p153
sS'with'
p154
g122
sg123
S''
sg124
(lp155
sg128
I01
sg129
(lp156
sg131
I00
sg132
(dp157
sg134
I00
sg135
g136
sg137
I00
sg138
I00
sg139
g140
sg141
g142
sg143
g144
sg145
I00
ssg146
S'bounding'
p158
ssS'2'
(dp159
g4
I2
sg110
I1
sg111
(dp160
g113
I00
sS'skipheader'
p161
I0
sg115
(lp162
sg117
S'Custom02_continuity'
p163
sg119
S'Continuity'
p164
sS'with'
p165
g122
sg123
S''
sg124
g155
sg128
I01
sg129
(lp166
sg131
I00
sg132
(dp167
sg134
I00
sg135
(lp168
g22
asg137
I00
sg138
I00
sg139
g140
sg141
g142
sg143
g144
sg145
I00
ssg146
S'continuity'
p169
ssS'5'
(dp170
g4
I5
sg110
I9
sg111
(dp171
g113
I01
sS'skipheader'
p172
I0
sg117
S'Custom05_faceareadynamicmesh'
p173
sg119
S'Face areas'
p174
sS'with'
p175
g122
sg123
S'Minimum face area = (\\S+). Maximum face area = (\\S+).'
p176
sg132
(dp177
sS'ylabel'
p178
S'[m^2]'
p179
sg129
(lp180
sg131
I00
sg145
I00
sg115
(lp181
S'Minimum'
p182
aS'Maximum'
p183
asg139
g140
sg137
I00
sg138
I00
sg141
g142
sg143
g144
sg128
I01
ssg146
S'faceareadynamicmesh'
p184
ssS'4'
(dp185
g4
I4
sg110
I8
sg111
(dp186
S'skipheader'
p187
I0
sg117
S'Custom04_nonorhogonalitydynamicmesh'
p188
sg119
S'Non-orthodonality and aspect ratio'
p189
sS'with'
p190
g122
sg129
(lp191
sg132
(dp192
sg138
I00
sg128
I01
sS'y2label'
p193
S'Aspect ratio'
p194
sg131
I00
sg178
S'Non-orthogonality'
p195
sg115
(lp196
S'Max non-orth'
p197
aS'Average non-orth'
p198
asg135
(lp199
S'max aspect'
p200
asg137
I00
sg123
S'Mesh non-orthogonality Max: (\\S+) average: (\\S+)'
p201
sg139
g140
sg141
g142
sg143
g144
sg145
I00
ssg146
S'nonorhogonalitydynamicmesh'
p202
ssS'6'
(dp203
g4
I6
sg110
I11
sg111
(dp204
g113
I01
sS'skipheader'
p205
I0
sg117
S'Custom07_cellvolumesdynamicmesh'
p206
sg119
S'Cell volumes'
p207
sS'with'
p208
g122
sg129
(lp209
sg132
(dp210
sg138
I00
sg128
I01
sg131
I00
sg178
S'[m^3]'
p211
sg115
(lp212
g182
ag183
aS'Total'
p213
asg135
(lp214
g213
asg137
I00
sg123
S'Min volume = (\\S+)\\. Max volume = (\\S+)\\.  Total volume = (\\S+)\\.'
p215
sg139
g140
sg141
g142
sg143
g144
sg145
I00
ssg146
S'cellvolumesdynamicmesh'
p216
ss.